; Function Attrs: mustprogress nofree nounwind willreturn memory(read) uwtable
define dso_local i32 @_ZNK5clang8CallExpr9getEndLocEv(ptr nocapture noundef nonnull readonly align 8 dereferenceable(24) %0) local_unnamed_addr #5 align 2 {
  %2 = load i8, ptr %0, align 8
  %.not = icmp eq i8 %2, 91
  br i1 %.not, label %3, label %5

3:                                                ; preds = %1
  %4 = getelementptr inbounds i8, ptr %0, i64 28
  %.sroa.0.0.copyload.i.i = load i32, ptr %4, align 4
  br label %27

5:                                                ; preds = %1
  %6 = getelementptr inbounds nuw i8, ptr %0, i64 20
  %.sroa.0.0.copyload.i = load i32, ptr %6, align 4
  %7 = icmp eq i32 %.sroa.0.0.copyload.i, 0
  br i1 %7, label %8, label %27

8:                                                ; preds = %5
  %9 = getelementptr inbounds nuw i8, ptr %0, i64 16
  %10 = load i32, ptr %9, align 8
  %.not3 = icmp eq i32 %10, 0
  br i1 %.not3, label %27, label %11

11:                                               ; preds = %8
  %12 = add i32 %10, -1
  %13 = load i32, ptr %0, align 8
  %14 = lshr i32 %13, 24
  %15 = zext nneg i32 %14 to i64
  %16 = getelementptr inbounds i8, ptr %0, i64 %15
  %17 = getelementptr inbounds i8, ptr %16, i64 8
  %18 = lshr i32 %13, 18
  %19 = and i32 %18, 1
  %20 = zext nneg i32 %19 to i64
  %21 = getelementptr inbounds ptr, ptr %17, i64 %20
  %22 = zext i32 %12 to i64
  %23 = getelementptr inbounds ptr, ptr %21, i64 %22
  %24 = load ptr, ptr %23, align 8
  %.not4 = icmp eq ptr %24, null
  br i1 %.not4, label %27, label %25

25:                                               ; preds = %11
  %26 = tail call i32 @_ZNK5clang4Stmt9getEndLocEv(ptr noundef nonnull align 8 dereferenceable(8) %24) #29
  br label %27

27:                                               ; preds = %5, %8, %11, %25, %3
  %.sroa.0.0 = phi i32 [ 0, %8 ], [ 0, %11 ], [ %26, %25 ], [ %.sroa.0.0.copyload.i, %5 ], [ %.sroa.0.0.copyload.i.i, %3 ]
  ret i32 %.sroa.0.0
}